target datalayout = "e-m:e-p270:32:32-p271:32:32-p272:64:64-i64:64-i128:128-f80:128-n8:16:32:64-S128"
target triple = "x86_64-pc-linux-gnu"

%"class.std::__1::ios_base" = type { ptr, i32, i64, i64, i32, i32, ptr, ptr, ptr, ptr, i64, i64, ptr, i64, i64, ptr, i64, i64 }
%"struct.std::__1::__less" = type { i8 }

@_ZZNSt3__18ios_base5pwordEiE5error = internal global ptr null, align 8
@.str.2 = private unnamed_addr constant [16 x i8] c"ios_base::clear\00", align 1

; Function Attrs: mustprogress nounwind uwtable
define linkonce_odr hidden noundef zeroext i1 @_ZNKSt3__16__lessIvvEclB8ne210000ImmEEbRKT_RKT0_(ptr noundef nonnull align 1 dereferenceable(1) %0, ptr noundef nonnull align 8 dereferenceable(8) %1, ptr noundef nonnull align 8 dereferenceable(8) %2) #0 comdat align 2 {
  %4 = alloca ptr, align 8
  %5 = alloca ptr, align 8
  %6 = alloca ptr, align 8
  store ptr %0, ptr %4, align 8, !tbaa !113
  store ptr %1, ptr %5, align 8, !tbaa !49
  store ptr %2, ptr %6, align 8, !tbaa !49
  %7 = load ptr, ptr %5, align 8, !tbaa !49
  %8 = load i64, ptr %7, align 8, !tbaa !37
  %9 = load ptr, ptr %6, align 8, !tbaa !49
  %10 = load i64, ptr %9, align 8, !tbaa !37
  %11 = icmp ult i64 %8, %10
  ret i1 %11
}

; Function Attrs: inlinehint mustprogress uwtable
define linkonce_odr hidden noundef nonnull align 8 dereferenceable(8) ptr @_ZNSt3__13maxB8ne210000ImNS_6__lessIvvEEEERKT_S5_S5_T0_(ptr noundef nonnull align 8 dereferenceable(8) %0, ptr noundef nonnull align 8 dereferenceable(8) %1) #9 comdat {
  %3 = alloca %"struct.std::__1::__less", align 1
  %4 = alloca ptr, align 8
  %5 = alloca ptr, align 8
  store ptr %0, ptr %4, align 8, !tbaa !49
  store ptr %1, ptr %5, align 8, !tbaa !49
  %6 = load ptr, ptr %4, align 8, !tbaa !49
  %7 = load ptr, ptr %5, align 8, !tbaa !49
  %8 = call noundef zeroext i1 @_ZNKSt3__16__lessIvvEclB8ne210000ImmEEbRKT_RKT0_(ptr noundef nonnull align 1 dereferenceable(1) %3, ptr noundef nonnull align 8 dereferenceable(8) %6, ptr noundef nonnull align 8 dereferenceable(8) %7)
  br i1 %8, label %9, label %11

9:                                                ; preds = %2
  %10 = load ptr, ptr %5, align 8, !tbaa !49
  br label %13

11:                                               ; preds = %2
  %12 = load ptr, ptr %4, align 8, !tbaa !49
  br label %13

13:                                               ; preds = %11, %9
  %14 = phi ptr [ %10, %9 ], [ %12, %11 ]
  ret ptr %14
}

; Function Attrs: mustprogress uwtable
define dso_local void @_ZNSt3__18ios_base5clearEj(ptr noundef nonnull align 8 dereferenceable(136) %0, i32 noundef %1) #1 align 2 {
  %3 = alloca ptr, align 8
  %4 = alloca i32, align 4
  store ptr %0, ptr %3, align 8, !tbaa !27
  store i32 %1, ptr %4, align 4, !tbaa !9
  %5 = load ptr, ptr %3, align 8
  %6 = getelementptr inbounds nuw %"class.std::__1::ios_base", ptr %5, i32 0, i32 6
  %7 = load ptr, ptr %6, align 8, !tbaa !61
  %8 = icmp ne ptr %7, null
  br i1 %8, label %9, label %12

9:                                                ; preds = %2
  %10 = load i32, ptr %4, align 4, !tbaa !9
  %11 = getelementptr inbounds nuw %"class.std::__1::ios_base", ptr %5, i32 0, i32 4
  store i32 %10, ptr %11, align 8, !tbaa !52
  br label %16

12:                                               ; preds = %2
  %13 = load i32, ptr %4, align 4, !tbaa !9
  %14 = or i32 %13, 1
  %15 = getelementptr inbounds nuw %"class.std::__1::ios_base", ptr %5, i32 0, i32 4
  store i32 %14, ptr %15, align 8, !tbaa !52
  br label %16

16:                                               ; preds = %12, %9
  %17 = load i32, ptr %4, align 4, !tbaa !9
  %18 = getelementptr inbounds nuw %"class.std::__1::ios_base", ptr %5, i32 0, i32 6
  %19 = load ptr, ptr %18, align 8, !tbaa !61
  %20 = icmp ne ptr %19, null
  %21 = select i1 %20, i32 0, i32 1
  %22 = or i32 %17, %21
  %23 = getelementptr inbounds nuw %"class.std::__1::ios_base", ptr %5, i32 0, i32 5
  %24 = load i32, ptr %23, align 4, !tbaa !62
  %25 = and i32 %22, %24
  %26 = icmp ne i32 %25, 0
  br i1 %26, label %27, label %28

27:                                               ; preds = %16
  call void @_ZNSt3__115__throw_failureB8ne210000EPKc(ptr noundef @.str.2) #21
  unreachable

28:                                               ; preds = %16
  ret void
}

; Function Attrs: inlinehint mustprogress uwtable
define linkonce_odr hidden noundef nonnull align 8 dereferenceable(8) ptr @_ZNSt3__13maxB8ne210000ImEERKT_S3_S3_(ptr noundef nonnull align 8 dereferenceable(8) %0, ptr noundef nonnull align 8 dereferenceable(8) %1) #9 comdat {
  %3 = alloca ptr, align 8
  %4 = alloca ptr, align 8
  store ptr %0, ptr %3, align 8, !tbaa !49
  store ptr %1, ptr %4, align 8, !tbaa !49
  %5 = load ptr, ptr %3, align 8, !tbaa !49
  %6 = load ptr, ptr %4, align 8, !tbaa !49
  %7 = call noundef nonnull align 8 dereferenceable(8) ptr @_ZNSt3__13maxB8ne210000ImNS_6__lessIvvEEEERKT_S5_S5_T0_(ptr noundef nonnull align 8 dereferenceable(8) %5, ptr noundef nonnull align 8 dereferenceable(8) %6)
  ret ptr %7
}

; Function Attrs: inlinehint mustprogress uwtable
define linkonce_odr hidden void @_ZNSt3__18ios_base8setstateB8ne210000Ej(ptr noundef nonnull align 8 dereferenceable(136) %0, i32 noundef %1) #9 comdat align 2 {
  %3 = alloca ptr, align 8
  %4 = alloca i32, align 4
  store ptr %0, ptr %3, align 8, !tbaa !27
  store i32 %1, ptr %4, align 4, !tbaa !9
  %5 = load ptr, ptr %3, align 8
  %6 = getelementptr inbounds nuw %"class.std::__1::ios_base", ptr %5, i32 0, i32 4
  %7 = load i32, ptr %6, align 8, !tbaa !52
  %8 = load i32, ptr %4, align 4, !tbaa !9
  %9 = or i32 %7, %8
  call void @_ZNSt3__18ios_base5clearEj(ptr noundef nonnull align 8 dereferenceable(136) %5, i32 noundef %9)
  ret void
}

; Function Attrs: mustprogress uwtable
define internal noundef i64 @_ZNSt3__1L13__ios_new_capIPvEEmmm(i64 noundef %0, i64 noundef %1) #1 {
  %3 = alloca i64, align 8
  %4 = alloca i64, align 8
  %5 = alloca i64, align 8
  %6 = alloca i64, align 8
  %7 = alloca i64, align 8
  %8 = alloca i32, align 4
  store i64 %0, ptr %4, align 8, !tbaa !37
  store i64 %1, ptr %5, align 8, !tbaa !37
  call void @llvm.lifetime.start.p0(i64 8, ptr %6) #3
  store i64 2305843009213693951, ptr %6, align 8, !tbaa !37
  %9 = load i64, ptr %4, align 8, !tbaa !37
  %10 = icmp ult i64 %9, 1152921504606846975
  br i1 %10, label %11, label %16

11:                                               ; preds = %2
  call void @llvm.lifetime.start.p0(i64 8, ptr %7) #3
  %12 = load i64, ptr %5, align 8, !tbaa !37
  %13 = mul i64 2, %12
  store i64 %13, ptr %7, align 8, !tbaa !37
  %14 = call noundef nonnull align 8 dereferenceable(8) ptr @_ZNSt3__13maxB8ne210000ImEERKT_S3_S3_(ptr noundef nonnull align 8 dereferenceable(8) %7, ptr noundef nonnull align 8 dereferenceable(8) %4)
  %15 = load i64, ptr %14, align 8, !tbaa !37
  store i64 %15, ptr %3, align 8
  call void @llvm.lifetime.end.p0(i64 8, ptr %7) #3
  store i32 1, ptr %8, align 4
  br label %17

16:                                               ; preds = %2
  store i64 2305843009213693951, ptr %3, align 8
  store i32 1, ptr %8, align 4
  br label %17

17:                                               ; preds = %16, %11
  call void @llvm.lifetime.end.p0(i64 8, ptr %6) #3
  %18 = load i64, ptr %3, align 8
  ret i64 %18
}

; Function Attrs: mustprogress uwtable
define dso_local noundef nonnull align 8 dereferenceable(8) ptr @_ZNSt3__18ios_base5pwordEi(ptr noundef nonnull align 8 dereferenceable(136) %0, i32 noundef %1) #1 align 2 {
  %3 = alloca ptr, align 8
  %4 = alloca ptr, align 8
  %5 = alloca i32, align 4
  %6 = alloca i64, align 8
  %7 = alloca i64, align 8
  %8 = alloca ptr, align 8
  %9 = alloca i32, align 4
  %10 = alloca ptr, align 8
  store ptr %0, ptr %4, align 8, !tbaa !27
  store i32 %1, ptr %5, align 4, !tbaa !9
  %11 = load ptr, ptr %4, align 8
  call void @llvm.lifetime.start.p0(i64 8, ptr %6) #3
  %12 = load i32, ptr %5, align 4, !tbaa !9
  %13 = sext i32 %12 to i64
  %14 = add i64 %13, 1
  store i64 %14, ptr %6, align 8, !tbaa !37
  %15 = load i64, ptr %6, align 8, !tbaa !37
  %16 = getelementptr inbounds nuw %"class.std::__1::ios_base", ptr %11, i32 0, i32 17
  %17 = load i64, ptr %16, align 8, !tbaa !53
  %18 = icmp ugt i64 %15, %17
  br i1 %18, label %19, label %59

19:                                               ; preds = %2
  call void @llvm.lifetime.start.p0(i64 8, ptr %7) #3
  %20 = load i64, ptr %6, align 8, !tbaa !37
  %21 = getelementptr inbounds nuw %"class.std::__1::ios_base", ptr %11, i32 0, i32 14
  %22 = load i64, ptr %21, align 8, !tbaa !47
  %23 = call noundef i64 @_ZNSt3__1L13__ios_new_capIPvEEmmm(i64 noundef %20, i64 noundef %22)
  store i64 %23, ptr %7, align 8, !tbaa !37
  call void @llvm.lifetime.start.p0(i64 8, ptr %8) #3
  %24 = getelementptr inbounds nuw %"class.std::__1::ios_base", ptr %11, i32 0, i32 15
  %25 = load ptr, ptr %24, align 8, !tbaa !54
  %26 = load i64, ptr %7, align 8, !tbaa !37
  %27 = mul i64 %26, 8
  %28 = call ptr @realloc(ptr noundef %25, i64 noundef %27) #19
  store ptr %28, ptr %8, align 8, !tbaa !55
  %29 = load ptr, ptr %8, align 8, !tbaa !55
  %30 = icmp eq ptr %29, null
  br i1 %30, label %31, label %32

31:                                               ; preds = %19
  call void @_ZNSt3__18ios_base8setstateB8ne210000Ej(ptr noundef nonnull align 8 dereferenceable(136) %11, i32 noundef 1)
  store ptr null, ptr @_ZZNSt3__18ios_base5pwordEiE5error, align 8, !tbaa !39
  store ptr @_ZZNSt3__18ios_base5pwordEiE5error, ptr %3, align 8
  store i32 1, ptr %9, align 4
  br label %56

32:                                               ; preds = %19
  %33 = load ptr, ptr %8, align 8, !tbaa !55
  %34 = getelementptr inbounds nuw %"class.std::__1::ios_base", ptr %11, i32 0, i32 15
  store ptr %33, ptr %34, align 8, !tbaa !54
  call void @llvm.lifetime.start.p0(i64 8, ptr %10) #3
  %35 = getelementptr inbounds nuw %"class.std::__1::ios_base", ptr %11, i32 0, i32 15
  %36 = load ptr, ptr %35, align 8, !tbaa !54
  %37 = getelementptr inbounds nuw %"class.std::__1::ios_base", ptr %11, i32 0, i32 16
  %38 = load i64, ptr %37, align 8, !tbaa !56
  %39 = getelementptr inbounds nuw ptr, ptr %36, i64 %38
  store ptr %39, ptr %10, align 8, !tbaa !55
  br label %40

40:                                               ; preds = %50, %32
  %41 = load ptr, ptr %10, align 8, !tbaa !55
  %42 = getelementptr inbounds nuw %"class.std::__1::ios_base", ptr %11, i32 0, i32 15
  %43 = load ptr, ptr %42, align 8, !tbaa !54
  %44 = load i64, ptr %7, align 8, !tbaa !37
  %45 = getelementptr inbounds nuw ptr, ptr %43, i64 %44
  %46 = icmp ult ptr %41, %45
  br i1 %46, label %48, label %47

47:                                               ; preds = %40
  store i32 2, ptr %9, align 4
  call void @llvm.lifetime.end.p0(i64 8, ptr %10) #3
  br label %53

48:                                               ; preds = %40
  %49 = load ptr, ptr %10, align 8, !tbaa !55
  store ptr null, ptr %49, align 8, !tbaa !39
  br label %50

50:                                               ; preds = %48
  %51 = load ptr, ptr %10, align 8, !tbaa !55
  %52 = getelementptr inbounds nuw ptr, ptr %51, i32 1
  store ptr %52, ptr %10, align 8, !tbaa !55
  br label %40, !llvm.loop !57

53:                                               ; preds = %47
  %54 = load i64, ptr %7, align 8, !tbaa !37
  %55 = getelementptr inbounds nuw %"class.std::__1::ios_base", ptr %11, i32 0, i32 17
  store i64 %54, ptr %55, align 8, !tbaa !53
  store i32 0, ptr %9, align 4
  br label %56

56:                                               ; preds = %53, %31
  call void @llvm.lifetime.end.p0(i64 8, ptr %8) #3
  call void @llvm.lifetime.end.p0(i64 8, ptr %7) #3
  %57 = load i32, ptr %9, align 4
  switch i32 %57, label %69 [
    i32 0, label %58
  ]

58:                                               ; preds = %56
  br label %59

59:                                               ; preds = %58, %2
  %60 = getelementptr inbounds nuw %"class.std::__1::ios_base", ptr %11, i32 0, i32 16
  %61 = call noundef nonnull align 8 dereferenceable(8) ptr @_ZNSt3__13maxB8ne210000ImEERKT_S3_S3_(ptr noundef nonnull align 8 dereferenceable(8) %60, ptr noundef nonnull align 8 dereferenceable(8) %6)
  %62 = load i64, ptr %61, align 8, !tbaa !37
  %63 = getelementptr inbounds nuw %"class.std::__1::ios_base", ptr %11, i32 0, i32 16
  store i64 %62, ptr %63, align 8, !tbaa !56
  %64 = getelementptr inbounds nuw %"class.std::__1::ios_base", ptr %11, i32 0, i32 15
  %65 = load ptr, ptr %64, align 8, !tbaa !54
  %66 = load i32, ptr %5, align 4, !tbaa !9
  %67 = sext i32 %66 to i64
  %68 = getelementptr inbounds ptr, ptr %65, i64 %67
  store ptr %68, ptr %3, align 8
  store i32 1, ptr %9, align 4
  br label %69

69:                                               ; preds = %59, %56
  call void @llvm.lifetime.end.p0(i64 8, ptr %6) #3
  %70 = load ptr, ptr %3, align 8
  ret ptr %70
}