; Function Attrs: mustprogress uwtable
define dso_local noundef nonnull align 8 dereferenceable(8) ptr @_ZNSt3__18ios_base5pwordEi(ptr noundef nonnull align 8 captures(none) dereferenceable(136) %0, i32 noundef %1) local_unnamed_addr #1 align 2 {
  %3 = sext i32 %1 to i64
  %4 = add nsw i64 %3, 1
  %5 = getelementptr inbounds nuw i8, ptr %0, i64 128
  %6 = load i64, ptr %5, align 8, !tbaa !32
  %7 = icmp ugt i64 %4, %6
  br i1 %7, label %8, label %._crit_edge18

._crit_edge18:                                    ; preds = %2
  %.phi.trans.insert = getelementptr inbounds nuw i8, ptr %0, i64 120
  %.pre = load i64, ptr %.phi.trans.insert, align 8, !tbaa !27
  %.phi.trans.insert19 = getelementptr inbounds nuw i8, ptr %0, i64 112
  %.pre20 = load ptr, ptr %.phi.trans.insert19, align 8, !tbaa !33
  br label %40

8:                                                ; preds = %2
  %9 = getelementptr inbounds nuw i8, ptr %0, i64 104
  %10 = load i64, ptr %9, align 8, !tbaa !26
  %11 = icmp ult i64 %4, 1152921504606846975
  %12 = shl i64 %10, 1
  %.sroa.speculated.i = tail call i64 @llvm.umax.i64(i64 %12, i64 range(i64 -2147483647, 2147483649) %4)
  %.0.i = select i1 %11, i64 %.sroa.speculated.i, i64 2305843009213693951
  %13 = getelementptr inbounds nuw i8, ptr %0, i64 112
  %14 = load ptr, ptr %13, align 8, !tbaa !33
  %15 = shl i64 %.0.i, 3
  %16 = tail call ptr @realloc(ptr noundef %14, i64 noundef %15) #27
  %17 = ptrtoint ptr %16 to i64
  %.not = icmp eq ptr %16, null
  br i1 %.not, label %18, label %26

18:                                               ; preds = %8
  %19 = getelementptr inbounds nuw i8, ptr %0, i64 32
  %20 = load i32, ptr %19, align 8, !tbaa !29
  %21 = or i32 %20, 1
  store i32 %21, ptr %19, align 8, !tbaa !29
  %22 = getelementptr inbounds nuw i8, ptr %0, i64 36
  %23 = load i32, ptr %22, align 4, !tbaa !30
  %24 = and i32 %23, %21
  %.not4.i.i = icmp eq i32 %24, 0
  br i1 %.not4.i.i, label %.thread, label %25

25:                                               ; preds = %18
  tail call void @_ZNSt3__115__throw_failureB8ne210000EPKc(ptr noundef nonnull @.str.2) #28
  unreachable

.thread:                                          ; preds = %18
  store ptr null, ptr @_ZZNSt3__18ios_base5pwordEiE5error, align 8, !tbaa !22
  br label %45

26:                                               ; preds = %8
  store ptr %16, ptr %13, align 8, !tbaa !33
  %27 = getelementptr inbounds nuw i8, ptr %0, i64 120
  %28 = load i64, ptr %27, align 8, !tbaa !34
  %29 = icmp samesign ult i64 %28, %.0.i
  br i1 %29, label %.lr.ph.preheader, label %._crit_edge

.lr.ph.preheader:                                 ; preds = %26
  %30 = getelementptr ptr, ptr %16, i64 %28
  %31 = shl i64 %28, 3
  %32 = add i64 %31, %17
  %33 = add i64 %32, 8
  %34 = add i64 %15, %17
  %umax = tail call i64 @llvm.umax.i64(i64 %33, i64 %34)
  %35 = xor i64 %17, -1
  %36 = add i64 %umax, %35
  %37 = sub i64 %36, %31
  %38 = and i64 %37, -8
  %39 = add i64 %38, 8
  tail call void @llvm.memset.p0.i64(ptr align 8 %30, i8 0, i64 %39, i1 false), !tbaa !22
  br label %._crit_edge

._crit_edge:                                      ; preds = %.lr.ph.preheader, %26
  store i64 %.0.i, ptr %5, align 8, !tbaa !32
  br label %40

40:                                               ; preds = %._crit_edge18, %._crit_edge
  %41 = phi ptr [ %.pre20, %._crit_edge18 ], [ %16, %._crit_edge ]
  %42 = phi i64 [ %.pre, %._crit_edge18 ], [ %28, %._crit_edge ]
  %43 = getelementptr inbounds nuw i8, ptr %0, i64 120
  %.sroa.speculated = tail call i64 @llvm.umax.i64(i64 %42, i64 %4)
  store i64 %.sroa.speculated, ptr %43, align 8, !tbaa !34
  %44 = getelementptr inbounds ptr, ptr %41, i64 %3
  br label %45

45:                                               ; preds = %.thread, %40
  %.1 = phi ptr [ %44, %40 ], [ @_ZZNSt3__18ios_base5pwordEiE5error, %.thread ]
  ret ptr %.1
}